target datalayout = "e-m:e-p270:32:32-p271:32:32-p272:64:64-i64:64-i128:128-f80:128-n8:16:32:64-S128"
target triple = "x86_64-pc-linux-gnu"

%"class.zmq::v1_decoder_t" = type { %"class.zmq::decoder_base_t", [8 x i8], %"class.zmq::msg_t", i64 }
%"class.zmq::decoder_base_t" = type { %"class.zmq::i_decoder", { i64, i64 }, ptr, i64, %"class.zmq::c_single_allocator", ptr }
%"class.zmq::i_decoder" = type { ptr }
%"class.zmq::c_single_allocator" = type { i64, ptr }
%"class.zmq::msg_t" = type { %union.anon }
%union.anon = type { %struct.anon }
%struct.anon = type { ptr, [34 x i8], i8, i8, i32, %"union.zmq::msg_t::group_t" }
%"union.zmq::msg_t::group_t" = type { %struct.anon.1 }
%struct.anon.1 = type { i8, ptr }

@stderr = external global ptr, align 8
@.str = private unnamed_addr constant [12 x i8] c"%s (%s:%d)\0A\00", align 1
@.str.1 = private unnamed_addr constant [110 x i8] c"generated/home/dtcxzyw/WorkSpace/Projects/compilers/llvm-opt-benchmark/bench/libzmq/libzmq/src/v1_decoder.cpp\00", align 1
@_ZTVN3zmq9i_decoderE = linkonce_odr unnamed_addr constant { [8 x ptr] } { [8 x ptr] [ptr null, ptr @_ZTIN3zmq9i_decoderE, ptr @_ZN3zmq9i_decoderD2Ev, ptr @_ZN3zmq9i_decoderD0Ev, ptr @__cxa_pure_virtual, ptr @__cxa_pure_virtual, ptr @__cxa_pure_virtual, ptr @__cxa_pure_virtual] }, comdat, align 8
@.str.2 = private unnamed_addr constant [36 x i8] c"FATAL ERROR: OUT OF MEMORY (%s:%d)\0A\00", align 1
@.str.3 = private unnamed_addr constant [118 x i8] c"generated/home/dtcxzyw/WorkSpace/Projects/compilers/llvm-opt-benchmark/bench/libzmq/libzmq/src/decoder_allocators.hpp\00", align 1
@.str.4 = private unnamed_addr constant [27 x i8] c"FATAL ERROR: OUT OF MEMORY\00", align 1

; Function Attrs: noinline noreturn nounwind uwtable
define linkonce_odr hidden void @__clang_call_terminate(ptr noundef %0) #7 comdat {
  %2 = call ptr @__cxa_begin_catch(ptr %0) #13
  call void @_ZSt9terminatev() #15
  unreachable
}

; Function Attrs: mustprogress nounwind uwtable
define linkonce_odr void @_ZN3zmq18c_single_allocator10deallocateEv(ptr noundef nonnull align 8 dereferenceable(16) %0) #6 comdat align 2 {
  %2 = alloca ptr, align 8
  store ptr %0, ptr %2, align 8, !tbaa !44
  ret void
}

; Function Attrs: mustprogress nounwind uwtable
define linkonce_odr void @_ZN3zmq9i_decoderD2Ev(ptr noundef nonnull align 8 dereferenceable(8) %0) unnamed_addr #6 comdat align 2 {
  %2 = alloca ptr, align 8
  store ptr %0, ptr %2, align 8, !tbaa !42
  ret void
}

; Function Attrs: mustprogress nounwind uwtable
define linkonce_odr void @_ZN3zmq18c_single_allocatorD2Ev(ptr noundef nonnull align 8 dereferenceable(16) %0) unnamed_addr #6 comdat align 2 {
  %2 = alloca ptr, align 8
  store ptr %0, ptr %2, align 8, !tbaa !44
  %3 = load ptr, ptr %2, align 8
  %4 = getelementptr inbounds nuw %"class.zmq::c_single_allocator", ptr %3, i32 0, i32 1
  %5 = load ptr, ptr %4, align 8, !tbaa !47
  call void @free(ptr noundef %5) #13
  ret void
}

; Function Attrs: mustprogress nounwind uwtable
define linkonce_odr noundef ptr @_ZN3zmq18c_single_allocator8allocateEv(ptr noundef nonnull align 8 dereferenceable(16) %0) #6 comdat align 2 {
  %2 = alloca ptr, align 8
  store ptr %0, ptr %2, align 8, !tbaa !44
  %3 = load ptr, ptr %2, align 8
  %4 = getelementptr inbounds nuw %"class.zmq::c_single_allocator", ptr %3, i32 0, i32 1
  %5 = load ptr, ptr %4, align 8, !tbaa !47
  ret ptr %5
}

; Function Attrs: mustprogress uwtable
define linkonce_odr void @_ZN3zmq18c_single_allocatorC2Em(ptr noundef nonnull align 8 dereferenceable(16) %0, i64 noundef %1) unnamed_addr #0 comdat align 2 {
  %3 = alloca ptr, align 8
  %4 = alloca i64, align 8
  store ptr %0, ptr %3, align 8, !tbaa !44
  store i64 %1, ptr %4, align 8, !tbaa !8
  %5 = load ptr, ptr %3, align 8
  %6 = getelementptr inbounds nuw %"class.zmq::c_single_allocator", ptr %5, i32 0, i32 0
  %7 = load i64, ptr %4, align 8, !tbaa !8
  store i64 %7, ptr %6, align 8, !tbaa !46
  %8 = getelementptr inbounds nuw %"class.zmq::c_single_allocator", ptr %5, i32 0, i32 1
  %9 = getelementptr inbounds nuw %"class.zmq::c_single_allocator", ptr %5, i32 0, i32 0
  %10 = load i64, ptr %9, align 8, !tbaa !46
  %11 = call noalias ptr @malloc(i64 noundef %10) #17
  store ptr %11, ptr %8, align 8, !tbaa !47
  br label %12

12:                                               ; preds = %2
  %13 = getelementptr inbounds nuw %"class.zmq::c_single_allocator", ptr %5, i32 0, i32 1
  %14 = load ptr, ptr %13, align 8, !tbaa !47
  %15 = icmp ne ptr %14, null
  %16 = xor i1 %15, true
  %17 = zext i1 %16 to i64
  %18 = call i64 @llvm.expect.i64(i64 %17, i64 0)
  %19 = icmp ne i64 %18, 0
  br i1 %19, label %20, label %25

20:                                               ; preds = %12
  %21 = load ptr, ptr @stderr, align 8, !tbaa !22
  %22 = call i32 (ptr, ptr, ...) @fprintf(ptr noundef %21, ptr noundef @.str.2, ptr noundef @.str.3, i32 noundef 23) #13
  %23 = load ptr, ptr @stderr, align 8, !tbaa !22
  %24 = call i32 @fflush(ptr noundef %23)
  call void @_ZN3zmq9zmq_abortEPKc(ptr noundef @.str.4)
  br label %25

25:                                               ; preds = %20, %12
  br label %26

26:                                               ; preds = %25
  ret void
}

; Function Attrs: inlinehint mustprogress nounwind uwtable
define linkonce_odr void @_ZN3zmq9i_decoderC2Ev(ptr noundef nonnull align 8 dereferenceable(8) %0) unnamed_addr #9 comdat align 2 {
  %2 = alloca ptr, align 8
  store ptr %0, ptr %2, align 8, !tbaa !42
  %3 = load ptr, ptr %2, align 8
  store ptr getelementptr inbounds inrange(-16, 48) ({ [8 x ptr] }, ptr @_ZTVN3zmq9i_decoderE, i32 0, i32 0, i32 2), ptr %3, align 8, !tbaa !10
  ret void
}

; Function Attrs: mustprogress nounwind uwtable
define linkonce_odr void @_ZN3zmq14decoder_base_tINS_12v1_decoder_tENS_18c_single_allocatorEED2Ev(ptr noundef nonnull align 8 dereferenceable(64) %0) unnamed_addr #6 comdat align 2 personality ptr @__gxx_personality_v0 {
  %2 = alloca ptr, align 8
  store ptr %0, ptr %2, align 8, !tbaa !25
  %3 = load ptr, ptr %2, align 8
  store ptr getelementptr inbounds inrange(-16, 48) ({ [8 x ptr] }, ptr @_ZTVN3zmq14decoder_base_tINS_12v1_decoder_tENS_18c_single_allocatorEEE, i32 0, i32 0, i32 2), ptr %3, align 8, !tbaa !10
  %4 = getelementptr inbounds nuw %"class.zmq::decoder_base_t", ptr %3, i32 0, i32 4
  invoke void @_ZN3zmq18c_single_allocator10deallocateEv(ptr noundef nonnull align 8 dereferenceable(16) %4)
          to label %5 unwind label %7

5:                                                ; preds = %1
  %6 = getelementptr inbounds nuw %"class.zmq::decoder_base_t", ptr %3, i32 0, i32 4
  call void @_ZN3zmq18c_single_allocatorD2Ev(ptr noundef nonnull align 8 dereferenceable(16) %6) #13
  call void @_ZN3zmq9i_decoderD2Ev(ptr noundef nonnull align 8 dereferenceable(8) %3) #13
  ret void

7:                                                ; preds = %1
  %8 = landingpad { ptr, i32 }
          catch ptr null
  %9 = extractvalue { ptr, i32 } %8, 0
  call void @__clang_call_terminate(ptr %9) #15
  unreachable
}

; Function Attrs: mustprogress nounwind uwtable
define linkonce_odr void @_ZN3zmq14decoder_base_tINS_12v1_decoder_tENS_18c_single_allocatorEE9next_stepEPvmMS1_FiPKhE(ptr noundef nonnull align 8 dereferenceable(64) %0, ptr noundef %1, i64 noundef %2, i64 %3, i64 %4) #6 comdat align 2 {
  %6 = alloca { i64, i64 }, align 8
  %7 = alloca ptr, align 8
  %8 = alloca ptr, align 8
  %9 = alloca i64, align 8
  %10 = alloca { i64, i64 }, align 8
  %11 = getelementptr inbounds nuw { i64, i64 }, ptr %6, i32 0, i32 0
  store i64 %3, ptr %11, align 8
  %12 = getelementptr inbounds nuw { i64, i64 }, ptr %6, i32 0, i32 1
  store i64 %4, ptr %12, align 8
  %13 = load { i64, i64 }, ptr %6, align 8, !tbaa !24
  store ptr %0, ptr %7, align 8, !tbaa !25
  store ptr %1, ptr %8, align 8, !tbaa !31
  store i64 %2, ptr %9, align 8, !tbaa !8
  store { i64, i64 } %13, ptr %10, align 8, !tbaa !24
  %14 = load ptr, ptr %7, align 8
  %15 = load ptr, ptr %8, align 8, !tbaa !31
  %16 = getelementptr inbounds nuw %"class.zmq::decoder_base_t", ptr %14, i32 0, i32 2
  store ptr %15, ptr %16, align 8, !tbaa !28
  %17 = load i64, ptr %9, align 8, !tbaa !8
  %18 = getelementptr inbounds nuw %"class.zmq::decoder_base_t", ptr %14, i32 0, i32 3
  store i64 %17, ptr %18, align 8, !tbaa !29
  %19 = load { i64, i64 }, ptr %10, align 8, !tbaa !24
  %20 = getelementptr inbounds nuw %"class.zmq::decoder_base_t", ptr %14, i32 0, i32 1
  store { i64, i64 } %19, ptr %20, align 8, !tbaa !27
  ret void
}

; Function Attrs: mustprogress uwtable
define linkonce_odr void @_ZN3zmq14decoder_base_tINS_12v1_decoder_tENS_18c_single_allocatorEEC2Em(ptr noundef nonnull align 8 dereferenceable(64) %0, i64 noundef %1) unnamed_addr #0 comdat align 2 personality ptr @__gxx_personality_v0 {
  %3 = alloca ptr, align 8
  %4 = alloca i64, align 8
  %5 = alloca ptr, align 8
  %6 = alloca i32, align 4
  store ptr %0, ptr %3, align 8, !tbaa !25
  store i64 %1, ptr %4, align 8, !tbaa !8
  %7 = load ptr, ptr %3, align 8
  call void @_ZN3zmq9i_decoderC2Ev(ptr noundef nonnull align 8 dereferenceable(8) %7) #13
  store ptr getelementptr inbounds inrange(-16, 48) ({ [8 x ptr] }, ptr @_ZTVN3zmq14decoder_base_tINS_12v1_decoder_tENS_18c_single_allocatorEEE, i32 0, i32 0, i32 2), ptr %7, align 8, !tbaa !10
  %8 = getelementptr inbounds nuw %"class.zmq::decoder_base_t", ptr %7, i32 0, i32 1
  store { i64, i64 } zeroinitializer, ptr %8, align 8, !tbaa !27
  %9 = getelementptr inbounds nuw %"class.zmq::decoder_base_t", ptr %7, i32 0, i32 2
  store ptr null, ptr %9, align 8, !tbaa !28
  %10 = getelementptr inbounds nuw %"class.zmq::decoder_base_t", ptr %7, i32 0, i32 3
  store i64 0, ptr %10, align 8, !tbaa !29
  %11 = getelementptr inbounds nuw %"class.zmq::decoder_base_t", ptr %7, i32 0, i32 4
  %12 = load i64, ptr %4, align 8, !tbaa !8
  invoke void @_ZN3zmq18c_single_allocatorC2Em(ptr noundef nonnull align 8 dereferenceable(16) %11, i64 noundef %12)
          to label %13 unwind label %18

13:                                               ; preds = %2
  %14 = getelementptr inbounds nuw %"class.zmq::decoder_base_t", ptr %7, i32 0, i32 4
  %15 = invoke noundef ptr @_ZN3zmq18c_single_allocator8allocateEv(ptr noundef nonnull align 8 dereferenceable(16) %14)
          to label %16 unwind label %22

16:                                               ; preds = %13
  %17 = getelementptr inbounds nuw %"class.zmq::decoder_base_t", ptr %7, i32 0, i32 5
  store ptr %15, ptr %17, align 8, !tbaa !30
  ret void

18:                                               ; preds = %2
  %19 = landingpad { ptr, i32 }
          cleanup
  %20 = extractvalue { ptr, i32 } %19, 0
  store ptr %20, ptr %5, align 8
  %21 = extractvalue { ptr, i32 } %19, 1
  store i32 %21, ptr %6, align 4
  br label %26

22:                                               ; preds = %13
  %23 = landingpad { ptr, i32 }
          cleanup
  %24 = extractvalue { ptr, i32 } %23, 0
  store ptr %24, ptr %5, align 8
  %25 = extractvalue { ptr, i32 } %23, 1
  store i32 %25, ptr %6, align 4
  call void @_ZN3zmq18c_single_allocatorD2Ev(ptr noundef nonnull align 8 dereferenceable(16) %11) #13
  br label %26

26:                                               ; preds = %22, %18
  call void @_ZN3zmq9i_decoderD2Ev(ptr noundef nonnull align 8 dereferenceable(8) %7) #13
  br label %27

27:                                               ; preds = %26
  %28 = load ptr, ptr %5, align 8
  %29 = load i32, ptr %6, align 4
  %30 = insertvalue { ptr, i32 } poison, ptr %28, 0
  %31 = insertvalue { ptr, i32 } %30, i32 %29, 1
  resume { ptr, i32 } %31
}

; Function Attrs: mustprogress uwtable
define void @_ZN3zmq12v1_decoder_tC2Eml(ptr noundef nonnull align 8 dereferenceable(144) %0, i64 noundef %1, i64 noundef %2) unnamed_addr #0 align 2 personality ptr @__gxx_personality_v0 {
  %4 = alloca ptr, align 8
  %5 = alloca i64, align 8
  %6 = alloca i64, align 8
  %7 = alloca i32, align 4
  %8 = alloca ptr, align 8
  %9 = alloca i32, align 4
  %10 = alloca ptr, align 8
  %11 = alloca { i64, i64 }, align 8
  store ptr %0, ptr %4, align 8, !tbaa !3
  store i64 %1, ptr %5, align 8, !tbaa !8
  store i64 %2, ptr %6, align 8, !tbaa !8
  %12 = load ptr, ptr %4, align 8
  %13 = load i64, ptr %5, align 8, !tbaa !8
  call void @_ZN3zmq14decoder_base_tINS_12v1_decoder_tENS_18c_single_allocatorEEC2Em(ptr noundef nonnull align 8 dereferenceable(64) %12, i64 noundef %13)
  store ptr getelementptr inbounds inrange(-16, 48) ({ [8 x ptr] }, ptr @_ZTVN3zmq12v1_decoder_tE, i32 0, i32 0, i32 2), ptr %12, align 8, !tbaa !10
  %14 = getelementptr inbounds nuw %"class.zmq::v1_decoder_t", ptr %12, i32 0, i32 3
  %15 = load i64, ptr %6, align 8, !tbaa !8
  store i64 %15, ptr %14, align 8, !tbaa !12
  call void @llvm.lifetime.start.p0(i64 4, ptr %7) #13
  %16 = getelementptr inbounds nuw %"class.zmq::v1_decoder_t", ptr %12, i32 0, i32 2
  %17 = invoke noundef i32 @_ZN3zmq5msg_t4initEv(ptr noundef nonnull align 8 dereferenceable(64) %16)
          to label %18 unwind label %38

18:                                               ; preds = %3
  store i32 %17, ptr %7, align 4, !tbaa !19
  br label %19

19:                                               ; preds = %18
  %20 = load i32, ptr %7, align 4, !tbaa !19
  %21 = icmp eq i32 %20, 0
  %22 = xor i1 %21, true
  %23 = zext i1 %22 to i64
  %24 = call i64 @llvm.expect.i64(i64 %23, i64 0)
  %25 = icmp ne i64 %24, 0
  br i1 %25, label %26, label %46

26:                                               ; preds = %19
  call void @llvm.lifetime.start.p0(i64 8, ptr %10) #13
  %27 = call ptr @__errno_location() #14
  %28 = load i32, ptr %27, align 4, !tbaa !19
  %29 = call ptr @strerror(i32 noundef %28) #13
  store ptr %29, ptr %10, align 8, !tbaa !21
  %30 = load ptr, ptr @stderr, align 8, !tbaa !22
  %31 = load ptr, ptr %10, align 8, !tbaa !21
  %32 = call i32 (ptr, ptr, ...) @fprintf(ptr noundef %30, ptr noundef @.str, ptr noundef %31, ptr noundef @.str.1, i32 noundef 19) #13
  %33 = load ptr, ptr @stderr, align 8, !tbaa !22
  %34 = invoke i32 @fflush(ptr noundef %33)
          to label %35 unwind label %42

35:                                               ; preds = %26
  %36 = load ptr, ptr %10, align 8, !tbaa !21
  invoke void @_ZN3zmq9zmq_abortEPKc(ptr noundef %36)
          to label %37 unwind label %42

37:                                               ; preds = %35
  call void @llvm.lifetime.end.p0(i64 8, ptr %10) #13
  br label %46

38:                                               ; preds = %48, %3
  %39 = landingpad { ptr, i32 }
          cleanup
  %40 = extractvalue { ptr, i32 } %39, 0
  store ptr %40, ptr %8, align 8
  %41 = extractvalue { ptr, i32 } %39, 1
  store i32 %41, ptr %9, align 4
  br label %56

42:                                               ; preds = %35, %26
  %43 = landingpad { ptr, i32 }
          cleanup
  %44 = extractvalue { ptr, i32 } %43, 0
  store ptr %44, ptr %8, align 8
  %45 = extractvalue { ptr, i32 } %43, 1
  store i32 %45, ptr %9, align 4
  call void @llvm.lifetime.end.p0(i64 8, ptr %10) #13
  br label %56

46:                                               ; preds = %37, %19
  br label %47

47:                                               ; preds = %46
  br label %48

48:                                               ; preds = %47
  %49 = getelementptr inbounds nuw %"class.zmq::v1_decoder_t", ptr %12, i32 0, i32 1
  %50 = getelementptr inbounds [8 x i8], ptr %49, i64 0, i64 0
  store { i64, i64 } { i64 ptrtoint (ptr @_ZN3zmq12v1_decoder_t19one_byte_size_readyEPKh to i64), i64 0 }, ptr %11, align 8, !tbaa !24
  %51 = getelementptr inbounds nuw { i64, i64 }, ptr %11, i32 0, i32 0
  %52 = load i64, ptr %51, align 8
  %53 = getelementptr inbounds nuw { i64, i64 }, ptr %11, i32 0, i32 1
  %54 = load i64, ptr %53, align 8
  invoke void @_ZN3zmq14decoder_base_tINS_12v1_decoder_tENS_18c_single_allocatorEE9next_stepEPvmMS1_FiPKhE(ptr noundef nonnull align 8 dereferenceable(64) %12, ptr noundef %50, i64 noundef 1, i64 %52, i64 %54)
          to label %55 unwind label %38

55:                                               ; preds = %48
  call void @llvm.lifetime.end.p0(i64 4, ptr %7) #13
  ret void

56:                                               ; preds = %42, %38
  call void @llvm.lifetime.end.p0(i64 4, ptr %7) #13
  call void @_ZN3zmq14decoder_base_tINS_12v1_decoder_tENS_18c_single_allocatorEED2Ev(ptr noundef nonnull align 8 dereferenceable(64) %12) #13
  br label %57

57:                                               ; preds = %56
  %58 = load ptr, ptr %8, align 8
  %59 = load i32, ptr %9, align 4
  %60 = insertvalue { ptr, i32 } poison, ptr %58, 0
  %61 = insertvalue { ptr, i32 } %60, i32 %59, 1
  resume { ptr, i32 } %61
}