; Function Attrs: mustprogress uwtable
define void @_ZN3zmq12v1_decoder_tC2Eml(ptr noundef nonnull align 8 dereferenceable(144) initializes((0, 64), (136, 144)) %0, i64 noundef %1, i64 noundef %2) unnamed_addr #0 align 2 personality ptr @__gxx_personality_v0 {
  store ptr getelementptr inbounds nuw inrange(-16, 48) (i8, ptr @_ZTVN3zmq14decoder_base_tINS_12v1_decoder_tENS_18c_single_allocatorEEE, i64 16), ptr %0, align 8, !tbaa !3
  %4 = getelementptr inbounds nuw i8, ptr %0, i64 8
  %5 = getelementptr inbounds nuw i8, ptr %0, i64 40
  tail call void @llvm.memset.p0.i64(ptr noundef nonnull align 8 dereferenceable(32) %4, i8 0, i64 32, i1 false)
  store i64 %1, ptr %5, align 8, !tbaa !6
  %6 = getelementptr inbounds nuw i8, ptr %0, i64 48
  %7 = tail call noalias ptr @malloc(i64 noundef %1) #16
  store ptr %7, ptr %6, align 8, !tbaa !12
  %.not.i.i = icmp eq ptr %7, null
  br i1 %.not.i.i, label %8, label %_ZN3zmq14decoder_base_tINS_12v1_decoder_tENS_18c_single_allocatorEEC2Em.exit, !prof !13

8:                                                ; preds = %3
  %9 = load ptr, ptr @stderr, align 8, !tbaa !14
  %10 = tail call i32 (ptr, ptr, ...) @fprintf(ptr noundef %9, ptr noundef nonnull @.str.2, ptr noundef nonnull @.str.3, i32 noundef 23) #17
  %11 = load ptr, ptr @stderr, align 8, !tbaa !14
  %12 = tail call i32 @fflush(ptr noundef %11)
  tail call void @_ZN3zmq9zmq_abortEPKc(ptr noundef nonnull @.str.4)
  %.pre.i = load ptr, ptr %6, align 8, !tbaa !12
  br label %_ZN3zmq14decoder_base_tINS_12v1_decoder_tENS_18c_single_allocatorEEC2Em.exit

_ZN3zmq14decoder_base_tINS_12v1_decoder_tENS_18c_single_allocatorEEC2Em.exit: ; preds = %3, %8
  %13 = phi ptr [ %.pre.i, %8 ], [ %7, %3 ]
  %14 = getelementptr inbounds nuw i8, ptr %0, i64 56
  store ptr %13, ptr %14, align 8, !tbaa !16
  store ptr getelementptr inbounds nuw inrange(-16, 48) (i8, ptr @_ZTVN3zmq12v1_decoder_tE, i64 16), ptr %0, align 8, !tbaa !3
  %15 = getelementptr inbounds nuw i8, ptr %0, i64 136
  store i64 %2, ptr %15, align 8, !tbaa !19
  %16 = getelementptr inbounds nuw i8, ptr %0, i64 72
  %17 = invoke noundef i32 @_ZN3zmq5msg_t4initEv(ptr noundef nonnull align 8 dereferenceable(64) %16)
          to label %18 unwind label %27

18:                                               ; preds = %_ZN3zmq14decoder_base_tINS_12v1_decoder_tENS_18c_single_allocatorEEC2Em.exit
  %.not = icmp eq i32 %17, 0
  br i1 %.not, label %31, label %19, !prof !22

19:                                               ; preds = %18
  %20 = tail call ptr @__errno_location() #18
  %21 = load i32, ptr %20, align 4, !tbaa !23
  %22 = tail call ptr @strerror(i32 noundef %21) #19
  %23 = load ptr, ptr @stderr, align 8, !tbaa !14
  %24 = tail call i32 (ptr, ptr, ...) @fprintf(ptr noundef %23, ptr noundef nonnull @.str, ptr noundef %22, ptr noundef nonnull @.str.1, i32 noundef 19) #17
  %25 = load ptr, ptr @stderr, align 8, !tbaa !14
  %26 = tail call i32 @fflush(ptr noundef %25)
  invoke void @_ZN3zmq9zmq_abortEPKc(ptr noundef %22)
          to label %31 unwind label %29

27:                                               ; preds = %_ZN3zmq14decoder_base_tINS_12v1_decoder_tENS_18c_single_allocatorEEC2Em.exit
  %28 = landingpad { ptr, i32 }
          cleanup
  br label %35

29:                                               ; preds = %19
  %30 = landingpad { ptr, i32 }
          cleanup
  br label %35

31:                                               ; preds = %19, %18
  %32 = getelementptr inbounds nuw i8, ptr %0, i64 64
  %33 = getelementptr inbounds nuw i8, ptr %0, i64 24
  store ptr %32, ptr %33, align 8, !tbaa !25
  %34 = getelementptr inbounds nuw i8, ptr %0, i64 32
  store i64 1, ptr %34, align 8, !tbaa !26
  store i64 ptrtoint (ptr @_ZN3zmq12v1_decoder_t19one_byte_size_readyEPKh to i64), ptr %4, align 8, !tbaa !27
  %.repack8.i = getelementptr inbounds nuw i8, ptr %0, i64 16
  store i64 0, ptr %.repack8.i, align 8, !tbaa !27
  ret void

35:                                               ; preds = %29, %27
  %.pn = phi { ptr, i32 } [ %30, %29 ], [ %28, %27 ]
  store ptr getelementptr inbounds nuw inrange(-16, 48) (i8, ptr @_ZTVN3zmq14decoder_base_tINS_12v1_decoder_tENS_18c_single_allocatorEEE, i64 16), ptr %0, align 8, !tbaa !3
  %36 = load ptr, ptr %6, align 8, !tbaa !12
  tail call void @free(ptr noundef %36) #19
  resume { ptr, i32 } %.pn
}